; Function Attrs: mustprogress nounwind uwtable
define internal void @_ZN3gmx8internal14EnumIndexStoreINS_15analysismodules12_GLOBAL__N_113NormalizationEED0Ev(ptr noundef nonnull align 8 dereferenceable(48) %0) unnamed_addr #5 align 2 personality ptr @__gxx_personality_v0 {
  store ptr getelementptr inbounds inrange(-16, 56) ({ [9 x ptr] }, ptr @_ZTVN3gmx8internal14EnumIndexStoreINS_15analysismodules12_GLOBAL__N_113NormalizationEEE, i64 0, i32 0, i64 2), ptr %0, align 8
  %2 = getelementptr inbounds i8, ptr %0, i64 8
  %3 = load ptr, ptr %2, align 8
  %.not.i.i.i.i = icmp eq ptr %3, null
  br i1 %.not.i.i.i.i, label %_ZN3gmx8internal14EnumIndexStoreINS_15analysismodules12_GLOBAL__N_113NormalizationEED2Ev.exit, label %4

4:                                                ; preds = %1
  tail call void @_ZdlPv(ptr noundef nonnull %3) #23
  br label %_ZN3gmx8internal14EnumIndexStoreINS_15analysismodules12_GLOBAL__N_113NormalizationEED2Ev.exit

_ZN3gmx8internal14EnumIndexStoreINS_15analysismodules12_GLOBAL__N_113NormalizationEED2Ev.exit: ; preds = %1, %4
  tail call void @_ZdlPv(ptr noundef nonnull %0) #23
  ret void
}